; Function Attrs: mustprogress uwtable
define void @_ZN6google8protobuf5Value24set_allocated_list_valueEPNS0_9ListValueE(ptr noundef nonnull align 8 dereferenceable(32) %this, ptr noundef %list_value) local_unnamed_addr #3 align 2 {
entry:
  %_internal_metadata_.i = getelementptr inbounds i8, ptr %this, i64 8
  %0 = load i64, ptr %_internal_metadata_.i, align 8
  %and.i.i.i = and i64 %0, 1
  %tobool.i.i.not.i = icmp eq i64 %and.i.i.i, 0
  br i1 %tobool.i.i.not.i, label %if.else.i.i, label %if.then.i.i

if.then.i.i:                                      ; preds = %entry
  %and.i.i = and i64 %0, -2
  %1 = inttoptr i64 %and.i.i to ptr
  %2 = load ptr, ptr %1, align 8
  br label %_ZNK6google8protobuf11MessageLite8GetArenaEv.exit

if.else.i.i:                                      ; preds = %entry
  %3 = inttoptr i64 %0 to ptr
  br label %_ZNK6google8protobuf11MessageLite8GetArenaEv.exit

_ZNK6google8protobuf11MessageLite8GetArenaEv.exit: ; preds = %if.then.i.i, %if.else.i.i
  %retval.i.0.i = phi ptr [ %2, %if.then.i.i ], [ %3, %if.else.i.i ]
  tail call void @_ZN6google8protobuf5Value10clear_kindEv(ptr noundef nonnull align 8 dereferenceable(32) %this)
  %tobool.not = icmp eq ptr %list_value, null
  br i1 %tobool.not, label %if.end5, label %if.then

if.then:                                          ; preds = %_ZNK6google8protobuf11MessageLite8GetArenaEv.exit
  %_internal_metadata_.i6 = getelementptr inbounds i8, ptr %list_value, i64 8
  %4 = load i64, ptr %_internal_metadata_.i6, align 8
  %and.i.i.i7 = and i64 %4, 1
  %tobool.i.i.not.i8 = icmp eq i64 %and.i.i.i7, 0
  br i1 %tobool.i.i.not.i8, label %if.else.i.i12, label %if.then.i.i9

if.then.i.i9:                                     ; preds = %if.then
  %and.i.i10 = and i64 %4, -2
  %5 = inttoptr i64 %and.i.i10 to ptr
  %6 = load ptr, ptr %5, align 8
  br label %_ZNK6google8protobuf11MessageLite8GetArenaEv.exit13

if.else.i.i12:                                    ; preds = %if.then
  %7 = inttoptr i64 %4 to ptr
  br label %_ZNK6google8protobuf11MessageLite8GetArenaEv.exit13

_ZNK6google8protobuf11MessageLite8GetArenaEv.exit13: ; preds = %if.then.i.i9, %if.else.i.i12
  %retval.i.0.i11 = phi ptr [ %6, %if.then.i.i9 ], [ %7, %if.else.i.i12 ]
  %cmp.not = icmp eq ptr %retval.i.0.i, %retval.i.0.i11
  br i1 %cmp.not, label %if.end, label %if.then3

if.then3:                                         ; preds = %_ZNK6google8protobuf11MessageLite8GetArenaEv.exit13
  %call.i = tail call noundef ptr @_ZN6google8protobuf8internal23GetOwnedMessageInternalEPNS0_5ArenaEPNS0_11MessageLiteES3_(ptr noundef %retval.i.0.i, ptr noundef nonnull %list_value, ptr noundef %retval.i.0.i11)
  br label %if.end

if.end:                                           ; preds = %if.then3, %_ZNK6google8protobuf11MessageLite8GetArenaEv.exit13
  %list_value.addr.0 = phi ptr [ %call.i, %if.then3 ], [ %list_value, %_ZNK6google8protobuf11MessageLite8GetArenaEv.exit13 ]
  %_oneof_case_.i = getelementptr inbounds i8, ptr %this, i64 28
  store i32 6, ptr %_oneof_case_.i, align 4
  %8 = getelementptr inbounds i8, ptr %this, i64 16
  store ptr %list_value.addr.0, ptr %8, align 8
  br label %if.end5

if.end5:                                          ; preds = %if.end, %_ZNK6google8protobuf11MessageLite8GetArenaEv.exit
  ret void
}